; Function Attrs: nounwind uwtable
define ptr @ff_all_color_ranges() local_unnamed_addr #3 {
  %1 = alloca ptr, align 8
  call void @llvm.lifetime.start.p0(i64 8, ptr nonnull %1) #10
  store ptr null, ptr %1, align 8, !tbaa !23
  br label %2

2:                                                ; preds = %2, %0
  %indvars.iv = phi i64 [ 0, %0 ], [ %indvars.iv.next, %2 ]
  %3 = call i32 @ff_add_format(ptr noundef nonnull %1, i64 noundef %indvars.iv)
  %4 = icmp slt i32 %3, 0
  %indvars.iv.next = add nuw nsw i64 %indvars.iv, 1
  %exitcond = icmp eq i64 %indvars.iv.next, 3
  %or.cond = select i1 %4, i1 true, i1 %exitcond
  br i1 %or.cond, label %5, label %2, !llvm.loop !63

5:                                                ; preds = %2
  %6 = load ptr, ptr %1, align 8
  %spec.select = select i1 %4, ptr null, ptr %6
  call void @llvm.lifetime.end.p0(i64 8, ptr nonnull %1) #10
  ret ptr %spec.select
}